target datalayout = "e-m:e-p270:32:32-p271:32:32-p272:64:64-i64:64-f80:128-n8:16:32:64-S128"
target triple = "x86_64-pc-linux-gnu"

%struct.patient = type { [10 x i8], i32 }

@.str = private unnamed_addr constant [3 x i8] c"%d\00", align 1
@.str.1 = private unnamed_addr constant [5 x i8] c"%s%d\00", align 1
@grp1 = common dso_local global [100 x %struct.patient] zeroinitializer, align 16
@grp2 = common dso_local global [100 x %struct.patient] zeroinitializer, align 16
@grp3 = common dso_local global [100 x %struct.patient] zeroinitializer, align 16
@.str.2 = private unnamed_addr constant [4 x i8] c"%s\0A\00", align 1

; Function Attrs: noinline nounwind uwtable
define dso_local i32 @main() #0 {
  %1 = alloca i32, align 4
  %2 = alloca i32, align 4
  %3 = alloca i32, align 4
  %4 = alloca [10 x i8], align 1
  %5 = alloca i32, align 4
  %6 = alloca i32, align 4
  %7 = alloca i32, align 4
  store i32 0, i32* %1, align 4
  %8 = call i32 (i8*, ...) @__isoc99_scanf(i8* getelementptr inbounds ([3 x i8], [3 x i8]* @.str, i64 0, i64 0), i32* %2)
  store i32 0, i32* %3, align 4
  br label %9

9:                                                ; preds = %23, %0
  %10 = load i32, i32* %3, align 4
  %11 = load i32, i32* %2, align 4
  %12 = icmp slt i32 %10, %11
  br i1 %12, label %13, label %26

13:                                               ; preds = %9
  %14 = load i32, i32* %3, align 4
  %15 = sext i32 %14 to i64
  %16 = getelementptr inbounds [100 x %struct.patient], [100 x %struct.patient]* @grp1, i64 0, i64 %15
  %17 = getelementptr inbounds %struct.patient, %struct.patient* %16, i32 0, i32 0
  %18 = load i32, i32* %3, align 4
  %19 = sext i32 %18 to i64
  %20 = getelementptr inbounds [100 x %struct.patient], [100 x %struct.patient]* @grp1, i64 0, i64 %19
  %21 = getelementptr inbounds %struct.patient, %struct.patient* %20, i32 0, i32 1
  %22 = call i32 (i8*, ...) @__isoc99_scanf(i8* getelementptr inbounds ([5 x i8], [5 x i8]* @.str.1, i64 0, i64 0), [10 x i8]* %17, i32* %21)
  br label %23

23:                                               ; preds = %13
  %24 = load i32, i32* %3, align 4
  %25 = add nsw i32 %24, 1
  store i32 %25, i32* %3, align 4
  br label %9

26:                                               ; preds = %9
  store i32 0, i32* %3, align 4
  br label %27

27:                                               ; preds = %40, %26
  %28 = load i32, i32* %3, align 4
  %29 = load i32, i32* %2, align 4
  %30 = icmp slt i32 %28, %29
  br i1 %30, label %31, label %43

31:                                               ; preds = %27
  %32 = load i32, i32* %3, align 4
  %33 = sext i32 %32 to i64
  %34 = getelementptr inbounds [100 x %struct.patient], [100 x %struct.patient]* @grp2, i64 0, i64 %33
  %35 = getelementptr inbounds %struct.patient, %struct.patient* %34, i32 0, i32 1
  store i32 -1, i32* %35, align 4
  %36 = load i32, i32* %3, align 4
  %37 = sext i32 %36 to i64
  %38 = getelementptr inbounds [100 x %struct.patient], [100 x %struct.patient]* @grp3, i64 0, i64 %37
  %39 = getelementptr inbounds %struct.patient, %struct.patient* %38, i32 0, i32 1
  store i32 -1, i32* %39, align 4
  br label %40

40:                                               ; preds = %31
  %41 = load i32, i32* %3, align 4
  %42 = add nsw i32 %41, 1
  store i32 %42, i32* %3, align 4
  br label %27

43:                                               ; preds = %27
  store i32 0, i32* %3, align 4
  br label %44

44:                                               ; preds = %105, %43
  %45 = load i32, i32* %3, align 4
  %46 = load i32, i32* %2, align 4
  %47 = icmp slt i32 %45, %46
  br i1 %47, label %48, label %108

48:                                               ; preds = %44
  %49 = load i32, i32* %3, align 4
  %50 = sext i32 %49 to i64
  %51 = getelementptr inbounds [100 x %struct.patient], [100 x %struct.patient]* @grp1, i64 0, i64 %50
  %52 = getelementptr inbounds %struct.patient, %struct.patient* %51, i32 0, i32 1
  %53 = load i32, i32* %52, align 4
  %54 = icmp sge i32 %53, 60
  br i1 %54, label %55, label %76

55:                                               ; preds = %48
  %56 = load i32, i32* %3, align 4
  %57 = sext i32 %56 to i64
  %58 = getelementptr inbounds [100 x %struct.patient], [100 x %struct.patient]* @grp2, i64 0, i64 %57
  %59 = getelementptr inbounds %struct.patient, %struct.patient* %58, i32 0, i32 0
  %60 = getelementptr inbounds [10 x i8], [10 x i8]* %59, i64 0, i64 0
  %61 = load i32, i32* %3, align 4
  %62 = sext i32 %61 to i64
  %63 = getelementptr inbounds [100 x %struct.patient], [100 x %struct.patient]* @grp1, i64 0, i64 %62
  %64 = getelementptr inbounds %struct.patient, %struct.patient* %63, i32 0, i32 0
  %65 = getelementptr inbounds [10 x i8], [10 x i8]* %64, i64 0, i64 0
  %66 = call i8* @strcpy(i8* %60, i8* %65) #3
  %67 = load i32, i32* %3, align 4
  %68 = sext i32 %67 to i64
  %69 = getelementptr inbounds [100 x %struct.patient], [100 x %struct.patient]* @grp1, i64 0, i64 %68
  %70 = getelementptr inbounds %struct.patient, %struct.patient* %69, i32 0, i32 1
  %71 = load i32, i32* %70, align 4
  %72 = load i32, i32* %3, align 4
  %73 = sext i32 %72 to i64
  %74 = getelementptr inbounds [100 x %struct.patient], [100 x %struct.patient]* @grp2, i64 0, i64 %73
  %75 = getelementptr inbounds %struct.patient, %struct.patient* %74, i32 0, i32 1
  store i32 %71, i32* %75, align 4
  br label %76

76:                                               ; preds = %55, %48
  %77 = load i32, i32* %3, align 4
  %78 = sext i32 %77 to i64
  %79 = getelementptr inbounds [100 x %struct.patient], [100 x %struct.patient]* @grp1, i64 0, i64 %78
  %80 = getelementptr inbounds %struct.patient, %struct.patient* %79, i32 0, i32 1
  %81 = load i32, i32* %80, align 4
  %82 = icmp slt i32 %81, 60
  br i1 %82, label %83, label %104

83:                                               ; preds = %76
  %84 = load i32, i32* %3, align 4
  %85 = sext i32 %84 to i64
  %86 = getelementptr inbounds [100 x %struct.patient], [100 x %struct.patient]* @grp3, i64 0, i64 %85
  %87 = getelementptr inbounds %struct.patient, %struct.patient* %86, i32 0, i32 0
  %88 = getelementptr inbounds [10 x i8], [10 x i8]* %87, i64 0, i64 0
  %89 = load i32, i32* %3, align 4
  %90 = sext i32 %89 to i64
  %91 = getelementptr inbounds [100 x %struct.patient], [100 x %struct.patient]* @grp1, i64 0, i64 %90
  %92 = getelementptr inbounds %struct.patient, %struct.patient* %91, i32 0, i32 0
  %93 = getelementptr inbounds [10 x i8], [10 x i8]* %92, i64 0, i64 0
  %94 = call i8* @strcpy(i8* %88, i8* %93) #3
  %95 = load i32, i32* %3, align 4
  %96 = sext i32 %95 to i64
  %97 = getelementptr inbounds [100 x %struct.patient], [100 x %struct.patient]* @grp1, i64 0, i64 %96
  %98 = getelementptr inbounds %struct.patient, %struct.patient* %97, i32 0, i32 1
  %99 = load i32, i32* %98, align 4
  %100 = load i32, i32* %3, align 4
  %101 = sext i32 %100 to i64
  %102 = getelementptr inbounds [100 x %struct.patient], [100 x %struct.patient]* @grp3, i64 0, i64 %101
  %103 = getelementptr inbounds %struct.patient, %struct.patient* %102, i32 0, i32 1
  store i32 %99, i32* %103, align 4
  br label %104

104:                                              ; preds = %83, %76
  br label %105

105:                                              ; preds = %104
  %106 = load i32, i32* %3, align 4
  %107 = add nsw i32 %106, 1
  store i32 %107, i32* %3, align 4
  br label %44

108:                                              ; preds = %44
  store i32 1, i32* %6, align 4
  br label %109

109:                                              ; preds = %187, %108
  %110 = load i32, i32* %6, align 4
  %111 = load i32, i32* %2, align 4
  %112 = icmp slt i32 %110, %111
  br i1 %112, label %113, label %190

113:                                              ; preds = %109
  store i32 0, i32* %7, align 4
  br label %114

114:                                              ; preds = %183, %113
  %115 = load i32, i32* %7, align 4
  %116 = load i32, i32* %2, align 4
  %117 = load i32, i32* %6, align 4
  %118 = sub nsw i32 %116, %117
  %119 = icmp slt i32 %115, %118
  br i1 %119, label %120, label %186

120:                                              ; preds = %114
  %121 = load i32, i32* %7, align 4
  %122 = sext i32 %121 to i64
  %123 = getelementptr inbounds [100 x %struct.patient], [100 x %struct.patient]* @grp2, i64 0, i64 %122
  %124 = getelementptr inbounds %struct.patient, %struct.patient* %123, i32 0, i32 1
  %125 = load i32, i32* %124, align 4
  %126 = load i32, i32* %7, align 4
  %127 = add nsw i32 %126, 1
  %128 = sext i32 %127 to i64
  %129 = getelementptr inbounds [100 x %struct.patient], [100 x %struct.patient]* @grp2, i64 0, i64 %128
  %130 = getelementptr inbounds %struct.patient, %struct.patient* %129, i32 0, i32 1
  %131 = load i32, i32* %130, align 4
  %132 = icmp slt i32 %125, %131
  br i1 %132, label %133, label %182

133:                                              ; preds = %120
  %134 = load i32, i32* %7, align 4
  %135 = add nsw i32 %134, 1
  %136 = sext i32 %135 to i64
  %137 = getelementptr inbounds [100 x %struct.patient], [100 x %struct.patient]* @grp2, i64 0, i64 %136
  %138 = getelementptr inbounds %struct.patient, %struct.patient* %137, i32 0, i32 1
  %139 = load i32, i32* %138, align 4
  store i32 %139, i32* %5, align 4
  %140 = load i32, i32* %7, align 4
  %141 = sext i32 %140 to i64
  %142 = getelementptr inbounds [100 x %struct.patient], [100 x %struct.patient]* @grp2, i64 0, i64 %141
  %143 = getelementptr inbounds %struct.patient, %struct.patient* %142, i32 0, i32 1
  %144 = load i32, i32* %143, align 4
  %145 = load i32, i32* %7, align 4
  %146 = add nsw i32 %145, 1
  %147 = sext i32 %146 to i64
  %148 = getelementptr inbounds [100 x %struct.patient], [100 x %struct.patient]* @grp2, i64 0, i64 %147
  %149 = getelementptr inbounds %struct.patient, %struct.patient* %148, i32 0, i32 1
  store i32 %144, i32* %149, align 4
  %150 = load i32, i32* %5, align 4
  %151 = load i32, i32* %7, align 4
  %152 = sext i32 %151 to i64
  %153 = getelementptr inbounds [100 x %struct.patient], [100 x %struct.patient]* @grp2, i64 0, i64 %152
  %154 = getelementptr inbounds %struct.patient, %struct.patient* %153, i32 0, i32 1
  store i32 %150, i32* %154, align 4
  %155 = getelementptr inbounds [10 x i8], [10 x i8]* %4, i64 0, i64 0
  %156 = load i32, i32* %7, align 4
  %157 = add nsw i32 %156, 1
  %158 = sext i32 %157 to i64
  %159 = getelementptr inbounds [100 x %struct.patient], [100 x %struct.patient]* @grp2, i64 0, i64 %158
  %160 = getelementptr inbounds %struct.patient, %struct.patient* %159, i32 0, i32 0
  %161 = getelementptr inbounds [10 x i8], [10 x i8]* %160, i64 0, i64 0
  %162 = call i8* @strcpy(i8* %155, i8* %161) #3
  %163 = load i32, i32* %7, align 4
  %164 = add nsw i32 %163, 1
  %165 = sext i32 %164 to i64
  %166 = getelementptr inbounds [100 x %struct.patient], [100 x %struct.patient]* @grp2, i64 0, i64 %165
  %167 = getelementptr inbounds %struct.patient, %struct.patient* %166, i32 0, i32 0
  %168 = getelementptr inbounds [10 x i8], [10 x i8]* %167, i64 0, i64 0
  %169 = load i32, i32* %7, align 4
  %170 = sext i32 %169 to i64
  %171 = getelementptr inbounds [100 x %struct.patient], [100 x %struct.patient]* @grp2, i64 0, i64 %170
  %172 = getelementptr inbounds %struct.patient, %struct.patient* %171, i32 0, i32 0
  %173 = getelementptr inbounds [10 x i8], [10 x i8]* %172, i64 0, i64 0
  %174 = call i8* @strcpy(i8* %168, i8* %173) #3
  %175 = load i32, i32* %7, align 4
  %176 = sext i32 %175 to i64
  %177 = getelementptr inbounds [100 x %struct.patient], [100 x %struct.patient]* @grp2, i64 0, i64 %176
  %178 = getelementptr inbounds %struct.patient, %struct.patient* %177, i32 0, i32 0
  %179 = getelementptr inbounds [10 x i8], [10 x i8]* %178, i64 0, i64 0
  %180 = getelementptr inbounds [10 x i8], [10 x i8]* %4, i64 0, i64 0
  %181 = call i8* @strcpy(i8* %179, i8* %180) #3
  br label %182

182:                                              ; preds = %133, %120
  br label %183

183:                                              ; preds = %182
  %184 = load i32, i32* %7, align 4
  %185 = add nsw i32 %184, 1
  store i32 %185, i32* %7, align 4
  br label %114

186:                                              ; preds = %114
  br label %187

187:                                              ; preds = %186
  %188 = load i32, i32* %6, align 4
  %189 = add nsw i32 %188, 1
  store i32 %189, i32* %6, align 4
  br label %109

190:                                              ; preds = %109
  store i32 0, i32* %3, align 4
  br label %191

191:                                              ; preds = %210, %190
  %192 = load i32, i32* %3, align 4
  %193 = load i32, i32* %2, align 4
  %194 = icmp slt i32 %192, %193
  br i1 %194, label %195, label %213

195:                                              ; preds = %191
  %196 = load i32, i32* %3, align 4
  %197 = sext i32 %196 to i64
  %198 = getelementptr inbounds [100 x %struct.patient], [100 x %struct.patient]* @grp2, i64 0, i64 %197
  %199 = getelementptr inbounds %struct.patient, %struct.patient* %198, i32 0, i32 1
  %200 = load i32, i32* %199, align 4
  %201 = icmp ne i32 %200, -1
  br i1 %201, label %202, label %209

202:                                              ; preds = %195
  %203 = load i32, i32* %3, align 4
  %204 = sext i32 %203 to i64
  %205 = getelementptr inbounds [100 x %struct.patient], [100 x %struct.patient]* @grp2, i64 0, i64 %204
  %206 = getelementptr inbounds %struct.patient, %struct.patient* %205, i32 0, i32 0
  %207 = getelementptr inbounds [10 x i8], [10 x i8]* %206, i64 0, i64 0
  %208 = call i32 (i8*, ...) @printf(i8* getelementptr inbounds ([4 x i8], [4 x i8]* @.str.2, i64 0, i64 0), i8* %207)
  br label %209

209:                                              ; preds = %202, %195
  br label %210

210:                                              ; preds = %209
  %211 = load i32, i32* %3, align 4
  %212 = add nsw i32 %211, 1
  store i32 %212, i32* %3, align 4
  br label %191

213:                                              ; preds = %191
  store i32 0, i32* %3, align 4
  br label %214

214:                                              ; preds = %233, %213
  %215 = load i32, i32* %3, align 4
  %216 = load i32, i32* %2, align 4
  %217 = icmp slt i32 %215, %216
  br i1 %217, label %218, label %236

218:                                              ; preds = %214
  %219 = load i32, i32* %3, align 4
  %220 = sext i32 %219 to i64
  %221 = getelementptr inbounds [100 x %struct.patient], [100 x %struct.patient]* @grp3, i64 0, i64 %220
  %222 = getelementptr inbounds %struct.patient, %struct.patient* %221, i32 0, i32 1
  %223 = load i32, i32* %222, align 4
  %224 = icmp ne i32 %223, -1
  br i1 %224, label %225, label %232

225:                                              ; preds = %218
  %226 = load i32, i32* %3, align 4
  %227 = sext i32 %226 to i64
  %228 = getelementptr inbounds [100 x %struct.patient], [100 x %struct.patient]* @grp3, i64 0, i64 %227
  %229 = getelementptr inbounds %struct.patient, %struct.patient* %228, i32 0, i32 0
  %230 = getelementptr inbounds [10 x i8], [10 x i8]* %229, i64 0, i64 0
  %231 = call i32 (i8*, ...) @printf(i8* getelementptr inbounds ([4 x i8], [4 x i8]* @.str.2, i64 0, i64 0), i8* %230)
  br label %232

232:                                              ; preds = %225, %218
  br label %233

233:                                              ; preds = %232
  %234 = load i32, i32* %3, align 4
  %235 = add nsw i32 %234, 1
  store i32 %235, i32* %3, align 4
  br label %214

236:                                              ; preds = %214
  ret i32 0
}